
sector-armv6.elf:     file format elf32-littlearm
sector-armv6.elf

Sections:
Idx Name          Size      VMA       LMA       File off  Algn
  0 .note.gnu.build-id 00000024  00010094  00010094  00000094  2**2
                  CONTENTS, ALLOC, LOAD, READONLY, DATA
  1 .text         000003ec  000100b8  000100b8  000000b8  2**2
                  CONTENTS, ALLOC, LOAD, READONLY, CODE
  2 .data         00000004  000114b0  000114b0  000004b0  2**4
                  CONTENTS, ALLOC, LOAD, DATA
  3 .bss          00040000  000114c0  000114c0  000004b4  2**4
                  ALLOC
  4 .ARM.attributes 00000019  00000000  00000000  000004b4  2**0
                  CONTENTS, READONLY
SYMBOL TABLE:
00010094 l    d  .note.gnu.build-id	00000000 .note.gnu.build-id
000100b8 l    d  .text	00000000 .text
000114b0 l    d  .data	00000000 .data
000114c0 l    d  .bss	00000000 .bss
00000000 l    d  .ARM.attributes	00000000 .ARM.attributes
00000000 l    df *ABS*	00000000 ccIT8b1m.o
00040000 l       *ABS*	00000000 RAM_LIMIT
00000000 l       *ABS*	00000000 FALSE
ffffffff l       *ABS*	00000000 TRUE
00000000 l       *ABS*	00000000 EXECUTE
00000001 l       *ABS*	00000000 COMPILE
00000002 l       *ABS*	00000000 POSTPONE
00000001 l       *ABS*	00000000 ONE
00000002 l       *ABS*	00000000 TWO
00000004 l       *ABS*	00000000 CELL
00000020 l       *ABS*	00000000 BL
00000022 l       *ABS*	00000000 QU
80000000 l       *ABS*	00000000 FLAG_IMM
7fffffff l       *ABS*	00000000 MASK_IMM
00000024 l       *ABS*	00000000 stacks
00000090 l       *ABS*	00000000 sp_size
00000090 l       *ABS*	00000000 rp_size
00000000 l       *ABS*	00000000 SPTR
00000004 l       *ABS*	00000000 RPTR
00000008 l       *ABS*	00000000 HEAP
0000000c l       *ABS*	00000000 LAST
00000010 l       *ABS*	00000000 STAT
00000014 l       *ABS*	00000000 PEEK
00000018 l       *ABS*	00000000 CEIL
0000001c l       *ABS*	00000000 BASE
00000010 l       *ABS*	00000000 params
00000040 l       *ABS*	00000000 user_size
000114c0 l       .bss	00000000 _user
00011500 l       .bss	00000000 _spz
00011590 l       .bss	00000000 _sp0
00011590 l       .bss	00000000 _rpz
00011620 l       .bss	00000000 _rp0
00011624 l       .bss	00000000 h_where
000514c0 l       .bss	00000000 h_there
000100b8 l       .text	00000000 main
000100b8 l       .text	00000000 cold
000100bc l       .text	00000000 warm
000103bc l       .text	00000000 h_last
000100cc l       .text	00000000 miss
000100cc l       .text	00000000 abort
000100d4 l       .text	00000000 quit
000100e4 l       .text	00000000 warp
0001013c l       .text	00000000 token
000100e8 l       .text	00000000 find
000100ec l       .text	00000000 bne
00010118 l       .text	00000000 eval
00010134 l       .text	00000000 execute
0001012c l       .text	00000000 compile
00010180 l       .text	00000000 comma
00010194 l       .text	00000000 is_warp
000101b0 l       .text	00000000 pick
00001505 l       *ABS*	00000000 DJB2
00000005 l       *ABS*	00000000 SFHT
00010144 l       .text	00000000 skip
000101e8 l       .text	00000000 _getc
00010150 l       .text	00000000 hash
00010160 l       .text	00000000 scan
00010170 l       .text	00000000 mask
00010198 l       .text	00000000 unnest
000101a8 l       .text	00000000 next
000101c0 l       .text	00000000 nest
000101bc l       .text	00000000 jump
000101d0 l       .text	00000000 move
00000000 l       *ABS*	00000000 _ZERO
00000001 l       *ABS*	00000000 _ONE
00000000 l       *ABS*	00000000 _STDIN
00000001 l       *ABS*	00000000 _STDOUT
0000003f l       *ABS*	00000000 _GETC
00000040 l       *ABS*	00000000 _PUTC
0000005d l       *ABS*	00000000 _EXIT
000114b0 l       .data	00000000 _char
000101d8 l       .text	00000000 _exit
000101e4 l       .text	00000000 _init
00010208 l       .text	00000000 _putc
0001021c l       .text	00000000 _rets
000103bc l       .text	00000000 last_next
0002b584 l       *ABS*	00000000 hash_store
0002b5e5 l       *ABS*	00000000 hash_fetch
0002b58e l       *ABS*	00000000 hash_plus
00596816 l       *ABS*	00000000 hash_zeroq
0002b59f l       *ABS*	00000000 hash_colon
8002b59e l       *ABS*	00000000 hash_semis
0b87f112 l       *ABS*	00000000 hash_KEY
7c7c87d0 l       *ABS*	00000000 hash_EMIT
7c8254c0 l       *ABS*	00000000 hash_NAND
005973b0 l       *ABS*	00000000 hash_USERAT
7c7cc745 l       *ABS*	00000000 hash_EXIT
00000000 l       *ABS*	00000000 init_minimals
00010224 l       .text	00000000 it_exit
0001022c l       .text	00000000 is_exit
00010230 l       .text	00000000 it_colon
00010238 l       .text	00000000 is_colon
00010248 l       .text	00000000 create
00010258 l       .text	00000000 docomma
00010260 l       .text	00000000 it_semis
00010268 l       .text	00000000 is_semis
00010278 l       .text	00000000 finish
00010280 l       .text	00000000 it_key
00010288 l       .text	00000000 is_key
00010324 l       .text	00000000 push1
00010290 l       .text	00000000 it_emit
00010298 l       .text	00000000 is_emit
00010338 l       .text	00000000 pull2
00010330 l       .text	00000000 save1
000102a4 l       .text	00000000 it_store
000102ac l       .text	00000000 is_store
000102b4 l       .text	00000000 drop1
000102bc l       .text	00000000 it_fetch
000102c4 l       .text	00000000 is_fetch
00010328 l       .text	00000000 back1
000102d0 l       .text	00000000 it_nand
000102d8 l       .text	00000000 is_nand
0001032c l       .text	00000000 keep1
000102e8 l       .text	00000000 it_plus
000102f0 l       .text	00000000 is_plus
000102fc l       .text	00000000 it_zeroq
00010304 l       .text	00000000 is_zeroq
00010318 l       .text	00000000 it_userat
00010320 l       .text	00000000 is_userat
0059697a l       *ABS*	00000000 hash_DOCODE
0a1dff4f l       *ABS*	00000000 hash_ABORT
0b87c61b l       *ABS*	00000000 hash_BYE
0002b58b l       *ABS*	00000000 hash_DOT
0002b581 l       *ABS*	00000000 hash_HEX
0b87d404 l       *ABS*	00000000 hash_NAN
2c5784c9 l       *ABS*	00000000 hash_LSHIFT
416e6b97 l       *ABS*	00000000 hash_RSHIFT
00010318 l       .text	00000000 init_extras
0001034c l       .text	00000000 it_nan
00010354 l       .text	00000000 is_nan
00010354 l       .text	00000000 by_erro
00010354 l       .text	00000000 by_zero
00010354 l       .text	00000000 by_under
00010354 l       .text	00000000 by_over
0001035c l       .text	00000000 it_lshift
00010364 l       .text	00000000 is_lshift
00010370 l       .text	00000000 it_rshift
00010378 l       .text	00000000 is_rshift
00010384 l       .text	00000000 it_docode
0001038c l       .text	00000000 is_docode
00010394 l       .text	00000000 it_aborts
0001039c l       .text	00000000 is_aborts
000103a0 l       .text	00000000 it_byes
000103a8 l       .text	00000000 is_byes
000103ac l       .text	00000000 it_hex
000103b4 l       .text	00000000 is_hex
00010410 l       .text	00000000 number
000103bc l       .text	00000000 it_dot
000103c4 l       .text	00000000 is_dot
000103d0 l       .text	00000000 tohex
00010418 l       .text	00000000 nskip
00010424 l       .text	00000000 ndigit
00010454 l       .text	00000000 digit
0001044c l       .text	00000000 nodigit
00010438 l       .text	00000000 nscan
00010448 l       .text	00000000 isdigit
00010480 l       .text	00000000 _nibs
000514c0 g       .bss	00000000 _bss_end__
000114c0 g       .bss	00000000 __bss_start__
000514c0 g       .bss	00000000 __bss_end__
000100b8 g       .text	00000000 _start
000114c0 g       .bss	00000000 __bss_start
000514c0 g       .bss	00000000 __end__
000114b4 g       .data	00000000 _edata
000514c0 g       .bss	00000000 _end



Disassembly of section .text:

000100b8 <_start>:
   100b8:	e59f63c0 	ldr	r6, [pc, #960]	@ 10480 <_nibs>

000100bc <warm>:
   100bc:	e59f33c0 	ldr	r3, [pc, #960]	@ 10484 <_nibs+0x4>
   100c0:	e586300c 	str	r3, [r6, #12]
   100c4:	e59f33bc 	ldr	r3, [pc, #956]	@ 10488 <_nibs+0x8>
   100c8:	e5863008 	str	r3, [r6, #8]

000100cc <abort>:
   100cc:	e59f33b8 	ldr	r3, [pc, #952]	@ 1048c <_nibs+0xc>
   100d0:	e5863000 	str	r3, [r6]

000100d4 <quit>:
   100d4:	e59f33b4 	ldr	r3, [pc, #948]	@ 10490 <_nibs+0x10>
   100d8:	e5863004 	str	r3, [r6, #4]
   100dc:	e3a03000 	mov	r3, #0
   100e0:	e5863010 	str	r3, [r6, #16]

000100e4 <warp>:
   100e4:	eb000014 	bl	1013c <token>

000100e8 <find>:
   100e8:	e596100c 	ldr	r1, [r6, #12]

000100ec <bne>:
   100ec:	e3510000 	cmp	r1, #0
   100f0:	0afffff5 	beq	100cc <abort>
   100f4:	e1a03001 	mov	r3, r1
   100f8:	e5931000 	ldr	r1, [r3]
   100fc:	e2833004 	add	r3, r3, #4
   10100:	e5930000 	ldr	r0, [r3]
   10104:	e3a04102 	mov	r4, #-2147483648	@ 0x80000000
   10108:	e0004004 	and	r4, r0, r4
   1010c:	e0200004 	eor	r0, r0, r4
   10110:	e1550000 	cmp	r5, r0
   10114:	e2833004 	add	r3, r3, #4

00010118 <eval>:
   10118:	e5962010 	ldr	r2, [r6, #16]
   1011c:	e3520000 	cmp	r2, #0
   10120:	0a000003 	beq	10134 <execute>
   10124:	e3540000 	cmp	r4, #0
   10128:	1a000001 	bne	10134 <execute>

0001012c <compile>:
   1012c:	eb000013 	bl	10180 <comma>
   10130:	ebffffeb 	bl	100e4 <warp>

00010134 <execute>:
   10134:	e59f8358 	ldr	r8, [pc, #856]	@ 10494 <_nibs+0x14>
   10138:	eb00001c 	bl	101b0 <pick>

0001013c <token>:
   1013c:	e1a0b00e 	mov	fp, lr
   10140:	e59f5350 	ldr	r5, [pc, #848]	@ 10498 <_nibs+0x18>

00010144 <skip>:
   10144:	eb000027 	bl	101e8 <_getc>
   10148:	e3530020 	cmp	r3, #32
   1014c:	dafffffc 	ble	10144 <skip>

00010150 <hash>:
   10150:	e1a04005 	mov	r4, r5
   10154:	e1a05285 	lsl	r5, r5, #5
   10158:	e0855004 	add	r5, r5, r4
   1015c:	e0255003 	eor	r5, r5, r3

00010160 <scan>:
   10160:	eb000020 	bl	101e8 <_getc>
   10164:	e3530020 	cmp	r3, #32
   10168:	bafffffc 	blt	10160 <scan>
   1016c:	1afffff7 	bne	10150 <hash>

00010170 <mask>:
   10170:	e1a05085 	lsl	r5, r5, #1
   10174:	e1a050a5 	lsr	r5, r5, #1
   10178:	e1a0e00b 	mov	lr, fp
   1017c:	e12fff1e 	bx	lr

00010180 <comma>:
   10180:	e5965008 	ldr	r5, [r6, #8]
   10184:	e5853000 	str	r3, [r5]
   10188:	e2855004 	add	r5, r5, #4
   1018c:	e5865008 	str	r5, [r6, #8]
   10190:	e12fff1e 	bx	lr

00010194 <is_warp>:
   10194:	000100e4 	.word	0x000100e4

00010198 <unnest>:
   10198:	e5965004 	ldr	r5, [r6, #4]
   1019c:	e5958000 	ldr	r8, [r5]
   101a0:	e2855004 	add	r5, r5, #4
   101a4:	e5865004 	str	r5, [r6, #4]

000101a8 <next>:
   101a8:	e5983000 	ldr	r3, [r8]
   101ac:	e2888004 	add	r8, r8, #4

000101b0 <pick>:
   101b0:	e59f52d0 	ldr	r5, [pc, #720]	@ 10488 <_nibs+0x8>
   101b4:	e1530005 	cmp	r3, r5
   101b8:	aa000000 	bge	101c0 <nest>

000101bc <jump>:
   101bc:	e12fff33 	blx	r3

000101c0 <nest>:
   101c0:	e5965004 	ldr	r5, [r6, #4]
   101c4:	e2455004 	sub	r5, r5, #4
   101c8:	e5858000 	str	r8, [r5]
   101cc:	e5865004 	str	r5, [r6, #4]

000101d0 <move>:
   101d0:	e1a08003 	mov	r8, r3
   101d4:	ebfffff3 	bl	101a8 <next>

000101d8 <_exit>:
   101d8:	e3a0705d 	mov	r7, #93	@ 0x5d
   101dc:	e3a00000 	mov	r0, #0
   101e0:	ef000000 	svc	0x00000000

000101e4 <_init>:
   101e4:	e12fff1e 	bx	lr

000101e8 <_getc>:
   101e8:	e3a0703f 	mov	r7, #63	@ 0x3f
   101ec:	e3a00000 	mov	r0, #0
   101f0:	e59f12a4 	ldr	r1, [pc, #676]	@ 1049c <_nibs+0x1c>
   101f4:	e3a02001 	mov	r2, #1
   101f8:	ef000000 	svc	0x00000000
   101fc:	e5c03000 	strb	r3, [r0]
   10200:	e3500000 	cmp	r0, #0
   10204:	0afffff3 	beq	101d8 <_exit>

00010208 <_putc>:
   10208:	e3a07040 	mov	r7, #64	@ 0x40
   1020c:	e3a00001 	mov	r0, #1
   10210:	e59f1284 	ldr	r1, [pc, #644]	@ 1049c <_nibs+0x1c>
   10214:	e3a02001 	mov	r2, #1
   10218:	e5d03000 	ldrb	r3, [r0]

0001021c <_rets>:
   1021c:	ef000000 	svc	0x00000000
   10220:	e12fff1e 	bx	lr

00010224 <it_exit>:
   10224:	00000000 	.word	0x00000000
   10228:	7c7cc745 	.word	0x7c7cc745

0001022c <is_exit>:
   1022c:	ebffffd9 	bl	10198 <unnest>

00010230 <it_colon>:
   10230:	00010224 	.word	0x00010224
   10234:	0002b59f 	.word	0x0002b59f

00010238 <is_colon>:
   10238:	e5963008 	ldr	r3, [r6, #8]
   1023c:	e5863014 	str	r3, [r6, #20]
   10240:	e3a03001 	mov	r3, #1
   10244:	e5863010 	str	r3, [r6, #16]

00010248 <create>:
   10248:	e596300c 	ldr	r3, [r6, #12]
   1024c:	ebffffcb 	bl	10180 <comma>
   10250:	ebffffb9 	bl	1013c <token>
   10254:	e1a03005 	mov	r3, r5

00010258 <docomma>:
   10258:	ebffffc8 	bl	10180 <comma>
   1025c:	ebffffd1 	bl	101a8 <next>

00010260 <it_semis>:
   10260:	00010230 	.word	0x00010230
   10264:	8002b59e 	.word	0x8002b59e

00010268 <is_semis>:
   10268:	e5963014 	ldr	r3, [r6, #20]
   1026c:	e586300c 	str	r3, [r6, #12]
   10270:	e3a03000 	mov	r3, #0
   10274:	e5863010 	str	r3, [r6, #16]

00010278 <finish>:
   10278:	e59f3220 	ldr	r3, [pc, #544]	@ 104a0 <_nibs+0x20>
   1027c:	ebfffff5 	bl	10258 <docomma>

00010280 <it_key>:
   10280:	00010260 	.word	0x00010260
   10284:	0b87f112 	.word	0x0b87f112

00010288 <is_key>:
   10288:	ebffffd6 	bl	101e8 <_getc>
   1028c:	eb000024 	bl	10324 <push1>

00010290 <it_emit>:
   10290:	00010280 	.word	0x00010280
   10294:	7c7c87d0 	.word	0x7c7c87d0

00010298 <is_emit>:
   10298:	eb000026 	bl	10338 <pull2>
   1029c:	ebffffd9 	bl	10208 <_putc>
   102a0:	eb000022 	bl	10330 <save1>

000102a4 <it_store>:
   102a4:	00010290 	.word	0x00010290
   102a8:	0002b584 	.word	0x0002b584

000102ac <is_store>:
   102ac:	eb000021 	bl	10338 <pull2>
   102b0:	e5834000 	str	r4, [r3]

000102b4 <drop1>:
   102b4:	e2855004 	add	r5, r5, #4
   102b8:	eb00001c 	bl	10330 <save1>

000102bc <it_fetch>:
   102bc:	000102a4 	.word	0x000102a4
   102c0:	0002b5e5 	.word	0x0002b5e5

000102c4 <is_fetch>:
   102c4:	eb00001b 	bl	10338 <pull2>
   102c8:	e5933000 	ldr	r3, [r3]
   102cc:	eb000015 	bl	10328 <back1>

000102d0 <it_nand>:
   102d0:	000102bc 	.word	0x000102bc
   102d4:	7c8254c0 	.word	0x7c8254c0

000102d8 <is_nand>:
   102d8:	eb000016 	bl	10338 <pull2>
   102dc:	e0043003 	and	r3, r4, r3
   102e0:	e1e03003 	mvn	r3, r3
   102e4:	eb000010 	bl	1032c <keep1>

000102e8 <it_plus>:
   102e8:	000102d0 	.word	0x000102d0
   102ec:	0002b58e 	.word	0x0002b58e

000102f0 <is_plus>:
   102f0:	eb000010 	bl	10338 <pull2>
   102f4:	e0843003 	add	r3, r4, r3
   102f8:	eb00000b 	bl	1032c <keep1>

000102fc <it_zeroq>:
   102fc:	000102e8 	.word	0x000102e8
   10300:	00596816 	.word	0x00596816

00010304 <is_zeroq>:
   10304:	eb00000b 	bl	10338 <pull2>
   10308:	e3530000 	cmp	r3, #0
   1030c:	0a000005 	beq	10328 <back1>
   10310:	e3e03000 	mvn	r3, #0
   10314:	eb000003 	bl	10328 <back1>

00010318 <init_extras>:
   10318:	000102fc 	.word	0x000102fc
   1031c:	005973b0 	.word	0x005973b0

00010320 <is_userat>:
   10320:	e1a03006 	mov	r3, r6

00010324 <push1>:
   10324:	e5965000 	ldr	r5, [r6]

00010328 <back1>:
   10328:	e2455004 	sub	r5, r5, #4

0001032c <keep1>:
   1032c:	e5853000 	str	r3, [r5]

00010330 <save1>:
   10330:	e5865000 	str	r5, [r6]
   10334:	ebffff9b 	bl	101a8 <next>

00010338 <pull2>:
   10338:	e5965000 	ldr	r5, [r6]
   1033c:	e5953000 	ldr	r3, [r5]
   10340:	e2855004 	add	r5, r5, #4
   10344:	e5954000 	ldr	r4, [r5]
   10348:	e12fff1e 	bx	lr

0001034c <it_nan>:
   1034c:	00010318 	.word	0x00010318
   10350:	0b87d404 	.word	0x0b87d404

00010354 <by_erro>:
   10354:	e3a03702 	mov	r3, #524288	@ 0x80000
   10358:	ebfffff1 	bl	10324 <push1>

0001035c <it_lshift>:
   1035c:	0001034c 	.word	0x0001034c
   10360:	2c5784c9 	.word	0x2c5784c9

00010364 <is_lshift>:
   10364:	ebfffff3 	bl	10338 <pull2>
   10368:	e1a03314 	lsl	r3, r4, r3
   1036c:	ebffffee 	bl	1032c <keep1>

00010370 <it_rshift>:
   10370:	0001035c 	.word	0x0001035c
   10374:	416e6b97 	.word	0x416e6b97

00010378 <is_rshift>:
   10378:	ebffffee 	bl	10338 <pull2>
   1037c:	e1a03334 	lsr	r3, r4, r3
   10380:	ebffffe9 	bl	1032c <keep1>

00010384 <it_docode>:
   10384:	00010370 	.word	0x00010370
   10388:	0059697a 	.word	0x0059697a

0001038c <is_docode>:
   1038c:	e12fff38 	blx	r8
   10390:	ebffff84 	bl	101a8 <next>

00010394 <it_aborts>:
   10394:	00010384 	.word	0x00010384
   10398:	0a1dff4f 	.word	0x0a1dff4f

0001039c <is_aborts>:
   1039c:	ebffff4a 	bl	100cc <abort>

000103a0 <it_byes>:
   103a0:	00010394 	.word	0x00010394
   103a4:	0b87c61b 	.word	0x0b87c61b

000103a8 <is_byes>:
   103a8:	ebffff8a 	bl	101d8 <_exit>

000103ac <it_hex>:
   103ac:	000103a0 	.word	0x000103a0
   103b0:	0002b581 	.word	0x0002b581

000103b4 <is_hex>:
   103b4:	eb000015 	bl	10410 <number>
   103b8:	ebffffd9 	bl	10324 <push1>

000103bc <h_last>:
   103bc:	000103ac 	.word	0x000103ac
   103c0:	0002b58b 	.word	0x0002b58b

000103c4 <is_dot>:
   103c4:	ebffffdb 	bl	10338 <pull2>
   103c8:	eb000000 	bl	103d0 <tohex>
   103cc:	ebffffd7 	bl	10330 <save1>

000103d0 <tohex>:
   103d0:	e1a0b00e 	mov	fp, lr
   103d4:	e1a04003 	mov	r4, r3
   103d8:	e3a05020 	mov	r5, #32
   103dc:	e3550000 	cmp	r5, #0
   103e0:	0a000008 	beq	10408 <tohex+0x38>
   103e4:	e2455004 	sub	r5, r5, #4
   103e8:	e1a03534 	lsr	r3, r4, r5
   103ec:	e203300f 	and	r3, r3, #15
   103f0:	e3833030 	orr	r3, r3, #48	@ 0x30
   103f4:	e353003a 	cmp	r3, #58	@ 0x3a
   103f8:	ba000000 	blt	10400 <tohex+0x30>
   103fc:	e2833007 	add	r3, r3, #7
   10400:	ebffff80 	bl	10208 <_putc>
   10404:	ebfffff4 	bl	103dc <tohex+0xc>
   10408:	e1a0e00b 	mov	lr, fp
   1040c:	e12fff1e 	bx	lr

00010410 <number>:
   10410:	e1a0b00e 	mov	fp, lr
   10414:	e3a05000 	mov	r5, #0

00010418 <nskip>:
   10418:	ebffff72 	bl	101e8 <_getc>
   1041c:	e3530020 	cmp	r3, #32
   10420:	dafffffc 	ble	10418 <nskip>

00010424 <ndigit>:
   10424:	eb00000a 	bl	10454 <digit>
   10428:	e3530302 	cmp	r3, #134217728	@ 0x8000000
   1042c:	0a000006 	beq	1044c <nodigit>
   10430:	e1a05205 	lsl	r5, r5, #4
   10434:	e0855003 	add	r5, r5, r3

00010438 <nscan>:
   10438:	ebffff6a 	bl	101e8 <_getc>
   1043c:	e3530020 	cmp	r3, #32
   10440:	bafffffc 	blt	10438 <nscan>
   10444:	1afffff6 	bne	10424 <ndigit>

00010448 <isdigit>:
   10448:	e1a03005 	mov	r3, r5

0001044c <nodigit>:
   1044c:	e1a0e00b 	mov	lr, fp
   10450:	e12fff1e 	bx	lr

00010454 <digit>:
   10454:	e2433030 	sub	r3, r3, #48	@ 0x30
   10458:	e3530000 	cmp	r3, #0
   1045c:	ba000005 	blt	10478 <digit+0x24>
   10460:	e353000a 	cmp	r3, #10
   10464:	ba000002 	blt	10474 <digit+0x20>
   10468:	e2433007 	sub	r3, r3, #7
   1046c:	e3530010 	cmp	r3, #16
   10470:	ca000000 	bgt	10478 <digit+0x24>
   10474:	e12fff1e 	bx	lr
   10478:	e3a03702 	mov	r3, #524288	@ 0x80000
   1047c:	e12fff1e 	bx	lr

00010480 <_nibs>:
   10480:	000114c0 	.word	0x000114c0
   10484:	000103bc 	.word	0x000103bc
   10488:	00011624 	.word	0x00011624
   1048c:	00011590 	.word	0x00011590
   10490:	00011620 	.word	0x00011620
   10494:	00010194 	.word	0x00010194
   10498:	00001505 	.word	0x00001505
   1049c:	000114b0 	.word	0x000114b0
   104a0:	0001022c 	.word	0x0001022c
